target datalayout = "e-m:e-p270:32:32-p271:32:32-p272:64:64-i64:64-i128:128-f80:128-n8:16:32:64-S128"
target triple = "x86_64-pc-linux-gnu"

%struct._zend_refcounted_h = type { i32, %union.anon.3 }
%union.anon.3 = type { i32 }
%struct._zend_string = type { %struct._zend_refcounted_h, i64, i64, [1 x i8] }

; Function Attrs: alwaysinline nounwind uwtable
define internal zeroext i1 @zend_string_equal_content(ptr noundef %0, ptr noundef %1) #1 {
  %3 = alloca ptr, align 8
  %4 = alloca ptr, align 8
  store ptr %0, ptr %3, align 8, !tbaa !14
  store ptr %1, ptr %4, align 8, !tbaa !14
  %5 = load ptr, ptr %3, align 8, !tbaa !14
  %6 = getelementptr inbounds nuw %struct._zend_string, ptr %5, i32 0, i32 2
  %7 = load i64, ptr %6, align 8, !tbaa !16
  %8 = load ptr, ptr %4, align 8, !tbaa !14
  %9 = getelementptr inbounds nuw %struct._zend_string, ptr %8, i32 0, i32 2
  %10 = load i64, ptr %9, align 8, !tbaa !16
  %11 = icmp eq i64 %7, %10
  br i1 %11, label %12, label %16

12:                                               ; preds = %2
  %13 = load ptr, ptr %3, align 8, !tbaa !14
  %14 = load ptr, ptr %4, align 8, !tbaa !14
  %15 = call zeroext i1 @zend_string_equal_val(ptr noundef %13, ptr noundef %14)
  br label %16

16:                                               ; preds = %12, %2
  %17 = phi i1 [ false, %2 ], [ %15, %12 ]
  ret i1 %17
}

; Function Attrs: alwaysinline nounwind uwtable
define internal zeroext i8 @is_numeric_string_ex(ptr noundef %0, i64 noundef %1, ptr noundef %2, ptr noundef %3, i1 noundef zeroext %4, ptr noundef %5, ptr noundef %6) #1 {
  %8 = alloca i8, align 1
  %9 = alloca ptr, align 8
  %10 = alloca i64, align 8
  %11 = alloca ptr, align 8
  %12 = alloca ptr, align 8
  %13 = alloca i8, align 1
  %14 = alloca ptr, align 8
  %15 = alloca ptr, align 8
  store ptr %0, ptr %9, align 8, !tbaa !4
  store i64 %1, ptr %10, align 8, !tbaa !9
  store ptr %2, ptr %11, align 8, !tbaa !47
  store ptr %3, ptr %12, align 8, !tbaa !49
  %16 = zext i1 %4 to i8
  store i8 %16, ptr %13, align 1, !tbaa !51
  store ptr %5, ptr %14, align 8, !tbaa !126
  store ptr %6, ptr %15, align 8, !tbaa !55
  %17 = load ptr, ptr %9, align 8, !tbaa !4
  %18 = load i8, ptr %17, align 1, !tbaa !11
  %19 = sext i8 %18 to i32
  %20 = icmp sgt i32 %19, 57
  br i1 %20, label %21, label %22

21:                                               ; preds = %7
  store i8 0, ptr %8, align 1
  br label %32

22:                                               ; preds = %7
  %23 = load ptr, ptr %9, align 8, !tbaa !4
  %24 = load i64, ptr %10, align 8, !tbaa !9
  %25 = load ptr, ptr %11, align 8, !tbaa !47
  %26 = load ptr, ptr %12, align 8, !tbaa !49
  %27 = load i8, ptr %13, align 1, !tbaa !51, !range !53, !noundef !54
  %28 = trunc i8 %27 to i1
  %29 = load ptr, ptr %14, align 8, !tbaa !126
  %30 = load ptr, ptr %15, align 8, !tbaa !55
  %31 = call zeroext i8 @_is_numeric_string_ex(ptr noundef %23, i64 noundef %24, ptr noundef %25, ptr noundef %26, i1 noundef zeroext %28, ptr noundef %29, ptr noundef %30)
  store i8 %31, ptr %8, align 1
  br label %32

32:                                               ; preds = %22, %21
  %33 = load i8, ptr %8, align 1
  ret i8 %33
}

; Function Attrs: nounwind uwtable
define dso_local zeroext i1 @zendi_smart_streq(ptr noundef %0, ptr noundef %1) #0 {
  %3 = alloca i1, align 1
  %4 = alloca ptr, align 8
  %5 = alloca ptr, align 8
  %6 = alloca i8, align 1
  %7 = alloca i8, align 1
  %8 = alloca i32, align 4
  %9 = alloca i32, align 4
  %10 = alloca i64, align 8
  %11 = alloca i64, align 8
  %12 = alloca double, align 8
  %13 = alloca double, align 8
  %14 = alloca i32, align 4
  store ptr %0, ptr %4, align 8, !tbaa !14
  store ptr %1, ptr %5, align 8, !tbaa !14
  call void @llvm.lifetime.start.p0(i64 1, ptr %6) #20
  call void @llvm.lifetime.start.p0(i64 1, ptr %7) #20
  call void @llvm.lifetime.start.p0(i64 4, ptr %8) #20
  call void @llvm.lifetime.start.p0(i64 4, ptr %9) #20
  call void @llvm.lifetime.start.p0(i64 8, ptr %10) #20
  store i64 0, ptr %10, align 8, !tbaa !9
  call void @llvm.lifetime.start.p0(i64 8, ptr %11) #20
  store i64 0, ptr %11, align 8, !tbaa !9
  call void @llvm.lifetime.start.p0(i64 8, ptr %12) #20
  store double 0.000000e+00, ptr %12, align 8, !tbaa !57
  call void @llvm.lifetime.start.p0(i64 8, ptr %13) #20
  store double 0.000000e+00, ptr %13, align 8, !tbaa !57
  %15 = load ptr, ptr %4, align 8, !tbaa !14
  %16 = getelementptr inbounds nuw %struct._zend_string, ptr %15, i32 0, i32 3
  %17 = getelementptr inbounds [1 x i8], ptr %16, i64 0, i64 0
  %18 = load ptr, ptr %4, align 8, !tbaa !14
  %19 = getelementptr inbounds nuw %struct._zend_string, ptr %18, i32 0, i32 2
  %20 = load i64, ptr %19, align 8, !tbaa !16
  %21 = call zeroext i8 @is_numeric_string_ex(ptr noundef %17, i64 noundef %20, ptr noundef %10, ptr noundef %12, i1 noundef zeroext false, ptr noundef %8, ptr noundef null)
  store i8 %21, ptr %6, align 1, !tbaa !11
  %22 = zext i8 %21 to i32
  %23 = icmp ne i32 %22, 0
  br i1 %23, label %24, label %95

24:                                               ; preds = %2
  %25 = load ptr, ptr %5, align 8, !tbaa !14
  %26 = getelementptr inbounds nuw %struct._zend_string, ptr %25, i32 0, i32 3
  %27 = getelementptr inbounds [1 x i8], ptr %26, i64 0, i64 0
  %28 = load ptr, ptr %5, align 8, !tbaa !14
  %29 = getelementptr inbounds nuw %struct._zend_string, ptr %28, i32 0, i32 2
  %30 = load i64, ptr %29, align 8, !tbaa !16
  %31 = call zeroext i8 @is_numeric_string_ex(ptr noundef %27, i64 noundef %30, ptr noundef %11, ptr noundef %13, i1 noundef zeroext false, ptr noundef %9, ptr noundef null)
  store i8 %31, ptr %7, align 1, !tbaa !11
  %32 = zext i8 %31 to i32
  %33 = icmp ne i32 %32, 0
  br i1 %33, label %34, label %95

34:                                               ; preds = %24
  %35 = load i32, ptr %8, align 4, !tbaa !44
  %36 = icmp ne i32 %35, 0
  br i1 %36, label %37, label %47

37:                                               ; preds = %34
  %38 = load i32, ptr %8, align 4, !tbaa !44
  %39 = load i32, ptr %9, align 4, !tbaa !44
  %40 = icmp eq i32 %38, %39
  br i1 %40, label %41, label %47

41:                                               ; preds = %37
  %42 = load double, ptr %12, align 8, !tbaa !57
  %43 = load double, ptr %13, align 8, !tbaa !57
  %44 = fsub double %42, %43
  %45 = fcmp oeq double %44, 0.000000e+00
  br i1 %45, label %46, label %47

46:                                               ; preds = %41
  br label %96

47:                                               ; preds = %41, %37, %34
  %48 = load i8, ptr %6, align 1, !tbaa !11
  %49 = zext i8 %48 to i32
  %50 = icmp eq i32 %49, 5
  br i1 %50, label %55, label %51

51:                                               ; preds = %47
  %52 = load i8, ptr %7, align 1, !tbaa !11
  %53 = zext i8 %52 to i32
  %54 = icmp eq i32 %53, 5
  br i1 %54, label %55, label %91

55:                                               ; preds = %51, %47
  %56 = load i8, ptr %6, align 1, !tbaa !11
  %57 = zext i8 %56 to i32
  %58 = icmp ne i32 %57, 5
  br i1 %58, label %59, label %66

59:                                               ; preds = %55
  %60 = load i32, ptr %9, align 4, !tbaa !44
  %61 = icmp ne i32 %60, 0
  br i1 %61, label %62, label %63

62:                                               ; preds = %59
  store i1 false, ptr %3, align 1
  store i32 1, ptr %14, align 4
  br label %100

63:                                               ; preds = %59
  %64 = load i64, ptr %10, align 8, !tbaa !9
  %65 = sitofp i64 %64 to double
  store double %65, ptr %12, align 8, !tbaa !57
  br label %87

66:                                               ; preds = %55
  %67 = load i8, ptr %7, align 1, !tbaa !11
  %68 = zext i8 %67 to i32
  %69 = icmp ne i32 %68, 5
  br i1 %69, label %70, label %77

70:                                               ; preds = %66
  %71 = load i32, ptr %8, align 4, !tbaa !44
  %72 = icmp ne i32 %71, 0
  br i1 %72, label %73, label %74

73:                                               ; preds = %70
  store i1 false, ptr %3, align 1
  store i32 1, ptr %14, align 4
  br label %100

74:                                               ; preds = %70
  %75 = load i64, ptr %11, align 8, !tbaa !9
  %76 = sitofp i64 %75 to double
  store double %76, ptr %13, align 8, !tbaa !57
  br label %86

77:                                               ; preds = %66
  %78 = load double, ptr %12, align 8, !tbaa !57
  %79 = load double, ptr %13, align 8, !tbaa !57
  %80 = fcmp oeq double %78, %79
  br i1 %80, label %81, label %85

81:                                               ; preds = %77
  %82 = load double, ptr %12, align 8, !tbaa !57
  %83 = call i1 @llvm.is.fpclass.f64(double %82, i32 504)
  br i1 %83, label %85, label %84

84:                                               ; preds = %81
  br label %96

85:                                               ; preds = %81, %77
  br label %86

86:                                               ; preds = %85, %74
  br label %87

87:                                               ; preds = %86, %63
  %88 = load double, ptr %12, align 8, !tbaa !57
  %89 = load double, ptr %13, align 8, !tbaa !57
  %90 = fcmp oeq double %88, %89
  store i1 %90, ptr %3, align 1
  store i32 1, ptr %14, align 4
  br label %100

91:                                               ; preds = %51
  %92 = load i64, ptr %10, align 8, !tbaa !9
  %93 = load i64, ptr %11, align 8, !tbaa !9
  %94 = icmp eq i64 %92, %93
  store i1 %94, ptr %3, align 1
  store i32 1, ptr %14, align 4
  br label %100

95:                                               ; preds = %24, %2
  br label %96

96:                                               ; preds = %95, %84, %46
  %97 = load ptr, ptr %4, align 8, !tbaa !14
  %98 = load ptr, ptr %5, align 8, !tbaa !14
  %99 = call zeroext i1 @zend_string_equal_content(ptr noundef %97, ptr noundef %98)
  store i1 %99, ptr %3, align 1
  store i32 1, ptr %14, align 4
  br label %100

100:                                              ; preds = %96, %91, %87, %73, %62
  call void @llvm.lifetime.end.p0(i64 8, ptr %13) #20
  call void @llvm.lifetime.end.p0(i64 8, ptr %12) #20
  call void @llvm.lifetime.end.p0(i64 8, ptr %11) #20
  call void @llvm.lifetime.end.p0(i64 8, ptr %10) #20
  call void @llvm.lifetime.end.p0(i64 4, ptr %9) #20
  call void @llvm.lifetime.end.p0(i64 4, ptr %8) #20
  call void @llvm.lifetime.end.p0(i64 1, ptr %7) #20
  call void @llvm.lifetime.end.p0(i64 1, ptr %6) #20
  %101 = load i1, ptr %3, align 1
  ret i1 %101
}