; Function Attrs: nounwind uwtable
define dso_local zeroext i1 @zendi_smart_streq(ptr noundef %0, ptr noundef %1) local_unnamed_addr #1 {
  %3 = alloca i32, align 4
  %4 = alloca i32, align 4
  %5 = alloca i64, align 8
  %6 = alloca i64, align 8
  %7 = alloca double, align 8
  %8 = alloca double, align 8
  call void @llvm.lifetime.start.p0(i64 4, ptr nonnull %3) #28
  call void @llvm.lifetime.start.p0(i64 4, ptr nonnull %4) #28
  call void @llvm.lifetime.start.p0(i64 8, ptr nonnull %5) #28
  store i64 0, ptr %5, align 8, !tbaa !70
  call void @llvm.lifetime.start.p0(i64 8, ptr nonnull %6) #28
  store i64 0, ptr %6, align 8, !tbaa !70
  call void @llvm.lifetime.start.p0(i64 8, ptr nonnull %7) #28
  store double 0.000000e+00, ptr %7, align 8, !tbaa !71
  call void @llvm.lifetime.start.p0(i64 8, ptr nonnull %8) #28
  store double 0.000000e+00, ptr %8, align 8, !tbaa !71
  %9 = getelementptr inbounds nuw i8, ptr %0, i64 24
  %10 = getelementptr inbounds nuw i8, ptr %0, i64 16
  %11 = load i8, ptr %9, align 1, !tbaa !4
  %12 = icmp sgt i8 %11, 57
  br i1 %12, label %is_numeric_string_ex.exit.thread, label %is_numeric_string_ex.exit

is_numeric_string_ex.exit:                        ; preds = %2
  %13 = load i64, ptr %10, align 8, !tbaa !10
  %14 = call zeroext i8 @_is_numeric_string_ex(ptr noundef nonnull %9, i64 noundef %13, ptr noundef nonnull %5, ptr noundef nonnull %7, i1 noundef zeroext false, ptr noundef nonnull %3, ptr noundef null)
  %.not = icmp eq i8 %14, 0
  br i1 %.not, label %is_numeric_string_ex.exit.thread, label %15

15:                                               ; preds = %is_numeric_string_ex.exit
  %16 = getelementptr inbounds nuw i8, ptr %1, i64 24
  %17 = load i8, ptr %16, align 1, !tbaa !4
  %18 = icmp sgt i8 %17, 57
  br i1 %18, label %is_numeric_string_ex.exit.thread, label %is_numeric_string_ex.exit27

is_numeric_string_ex.exit27:                      ; preds = %15
  %19 = getelementptr inbounds nuw i8, ptr %1, i64 16
  %20 = load i64, ptr %19, align 8, !tbaa !10
  %21 = call zeroext i8 @_is_numeric_string_ex(ptr noundef nonnull %16, i64 noundef %20, ptr noundef nonnull %6, ptr noundef nonnull %8, i1 noundef zeroext false, ptr noundef nonnull %4, ptr noundef null)
  %.not16 = icmp eq i8 %21, 0
  br i1 %.not16, label %is_numeric_string_ex.exit.thread, label %22

22:                                               ; preds = %is_numeric_string_ex.exit27
  %23 = load i32, ptr %3, align 4, !tbaa !95
  %.not17 = icmp ne i32 %23, 0
  %24 = load i32, ptr %4, align 4
  %25 = icmp eq i32 %23, %24
  %or.cond23 = select i1 %.not17, i1 %25, i1 false
  br i1 %or.cond23, label %26, label %31

26:                                               ; preds = %22
  %27 = load double, ptr %7, align 8, !tbaa !71
  %28 = load double, ptr %8, align 8, !tbaa !71
  %29 = fsub double %27, %28
  %30 = fcmp oeq double %29, 0.000000e+00
  br i1 %30, label %is_numeric_string_ex.exit.thread, label %31

31:                                               ; preds = %26, %22
  %32 = icmp eq i8 %14, 5
  %33 = icmp eq i8 %21, 5
  %or.cond = or i1 %32, %33
  br i1 %or.cond, label %34, label %54

34:                                               ; preds = %31
  br i1 %32, label %39, label %35

35:                                               ; preds = %34
  %.not21 = icmp eq i32 %24, 0
  br i1 %.not21, label %36, label %zend_string_equal_content.exit

36:                                               ; preds = %35
  %37 = load i64, ptr %5, align 8, !tbaa !70
  %38 = sitofp i64 %37 to double
  %.pre32 = load double, ptr %8, align 8, !tbaa !71
  br label %50

39:                                               ; preds = %34
  br i1 %33, label %44, label %40

40:                                               ; preds = %39
  %.not20 = icmp eq i32 %23, 0
  br i1 %.not20, label %41, label %zend_string_equal_content.exit

41:                                               ; preds = %40
  %42 = load i64, ptr %6, align 8, !tbaa !70
  %43 = sitofp i64 %42 to double
  %.pre = load double, ptr %7, align 8, !tbaa !71
  br label %50

44:                                               ; preds = %39
  %45 = load double, ptr %7, align 8, !tbaa !71
  %46 = load double, ptr %8, align 8, !tbaa !71
  %47 = fcmp oeq double %45, %46
  %48 = call double @llvm.fabs.f64(double %45)
  %49 = fcmp ueq double %48, 0x7FF0000000000000
  %or.cond25 = and i1 %47, %49
  br i1 %or.cond25, label %is_numeric_string_ex.exit.thread, label %50

50:                                               ; preds = %41, %44, %36
  %51 = phi double [ %43, %41 ], [ %46, %44 ], [ %.pre32, %36 ]
  %52 = phi double [ %.pre, %41 ], [ %45, %44 ], [ %38, %36 ]
  %53 = fcmp oeq double %52, %51
  br label %zend_string_equal_content.exit

54:                                               ; preds = %31
  %55 = load i64, ptr %5, align 8, !tbaa !70
  %56 = load i64, ptr %6, align 8, !tbaa !70
  %57 = icmp eq i64 %55, %56
  br label %zend_string_equal_content.exit

is_numeric_string_ex.exit.thread:                 ; preds = %15, %2, %44, %is_numeric_string_ex.exit, %is_numeric_string_ex.exit27, %26
  %58 = load i64, ptr %10, align 8, !tbaa !10
  %59 = getelementptr inbounds nuw i8, ptr %1, i64 16
  %60 = load i64, ptr %59, align 8, !tbaa !10
  %61 = icmp eq i64 %58, %60
  br i1 %61, label %62, label %zend_string_equal_content.exit

62:                                               ; preds = %is_numeric_string_ex.exit.thread
  %63 = call zeroext i1 @zend_string_equal_val(ptr noundef nonnull %0, ptr noundef nonnull %1) #28
  br label %zend_string_equal_content.exit

zend_string_equal_content.exit:                   ; preds = %62, %is_numeric_string_ex.exit.thread, %40, %35, %54, %50
  %.0 = phi i1 [ %53, %50 ], [ %57, %54 ], [ false, %35 ], [ false, %40 ], [ false, %is_numeric_string_ex.exit.thread ], [ %63, %62 ]
  call void @llvm.lifetime.end.p0(i64 8, ptr nonnull %8) #28
  call void @llvm.lifetime.end.p0(i64 8, ptr nonnull %7) #28
  call void @llvm.lifetime.end.p0(i64 8, ptr nonnull %6) #28
  call void @llvm.lifetime.end.p0(i64 8, ptr nonnull %5) #28
  call void @llvm.lifetime.end.p0(i64 4, ptr nonnull %4) #28
  call void @llvm.lifetime.end.p0(i64 4, ptr nonnull %3) #28
  ret i1 %.0
}